target datalayout = "e-m:e-p270:32:32-p271:32:32-p272:64:64-i64:64-i128:128-f80:128-n8:16:32:64-S128"
target triple = "x86_64-pc-linux-gnu"

%struct.nghttp2_hd_deflater = type { %struct.nghttp2_hd_context, %struct.nghttp2_hd_map, i64, i64, i8 }
%struct.nghttp2_hd_context = type { %struct.nghttp2_hd_ringbuf, ptr, i64, i64, i32, i8 }
%struct.nghttp2_hd_ringbuf = type { ptr, i64, i64, i64 }
%struct.nghttp2_hd_map = type { [128 x ptr] }

; Function Attrs: nounwind uwtable
define dso_local i32 @nghttp2_hd_deflate_change_table_size(ptr noundef %0, i64 noundef %1) #0 {
  %3 = alloca ptr, align 8
  %4 = alloca i64, align 8
  %5 = alloca i64, align 8
  store ptr %0, ptr %3, align 8, !tbaa !36
  store i64 %1, ptr %4, align 8, !tbaa !38
  call void @llvm.lifetime.start.p0(i64 8, ptr %5) #6
  %6 = load i64, ptr %4, align 8, !tbaa !38
  %7 = load ptr, ptr %3, align 8, !tbaa !36
  %8 = getelementptr inbounds nuw %struct.nghttp2_hd_deflater, ptr %7, i32 0, i32 2
  %9 = load i64, ptr %8, align 8, !tbaa !46
  %10 = icmp ult i64 %6, %9
  br i1 %10, label %11, label %13

11:                                               ; preds = %2
  %12 = load i64, ptr %4, align 8, !tbaa !38
  br label %17

13:                                               ; preds = %2
  %14 = load ptr, ptr %3, align 8, !tbaa !36
  %15 = getelementptr inbounds nuw %struct.nghttp2_hd_deflater, ptr %14, i32 0, i32 2
  %16 = load i64, ptr %15, align 8, !tbaa !46
  br label %17

17:                                               ; preds = %13, %11
  %18 = phi i64 [ %12, %11 ], [ %16, %13 ]
  store i64 %18, ptr %5, align 8, !tbaa !38
  %19 = load i64, ptr %5, align 8, !tbaa !38
  %20 = load ptr, ptr %3, align 8, !tbaa !36
  %21 = getelementptr inbounds nuw %struct.nghttp2_hd_deflater, ptr %20, i32 0, i32 0
  %22 = getelementptr inbounds nuw %struct.nghttp2_hd_context, ptr %21, i32 0, i32 3
  store i64 %19, ptr %22, align 8, !tbaa !45
  %23 = load ptr, ptr %3, align 8, !tbaa !36
  %24 = getelementptr inbounds nuw %struct.nghttp2_hd_deflater, ptr %23, i32 0, i32 3
  %25 = load i64, ptr %24, align 8, !tbaa !47
  %26 = load i64, ptr %5, align 8, !tbaa !38
  %27 = icmp ult i64 %25, %26
  br i1 %27, label %28, label %32

28:                                               ; preds = %17
  %29 = load ptr, ptr %3, align 8, !tbaa !36
  %30 = getelementptr inbounds nuw %struct.nghttp2_hd_deflater, ptr %29, i32 0, i32 3
  %31 = load i64, ptr %30, align 8, !tbaa !47
  br label %34

32:                                               ; preds = %17
  %33 = load i64, ptr %5, align 8, !tbaa !38
  br label %34

34:                                               ; preds = %32, %28
  %35 = phi i64 [ %31, %28 ], [ %33, %32 ]
  %36 = load ptr, ptr %3, align 8, !tbaa !36
  %37 = getelementptr inbounds nuw %struct.nghttp2_hd_deflater, ptr %36, i32 0, i32 3
  store i64 %35, ptr %37, align 8, !tbaa !47
  %38 = load ptr, ptr %3, align 8, !tbaa !36
  %39 = getelementptr inbounds nuw %struct.nghttp2_hd_deflater, ptr %38, i32 0, i32 4
  store i8 1, ptr %39, align 8, !tbaa !39
  %40 = load ptr, ptr %3, align 8, !tbaa !36
  %41 = getelementptr inbounds nuw %struct.nghttp2_hd_deflater, ptr %40, i32 0, i32 0
  %42 = load ptr, ptr %3, align 8, !tbaa !36
  %43 = getelementptr inbounds nuw %struct.nghttp2_hd_deflater, ptr %42, i32 0, i32 1
  call void @hd_context_shrink_table_size(ptr noundef %41, ptr noundef %43)
  call void @llvm.lifetime.end.p0(i64 8, ptr %5) #6
  ret i32 0
}