; Function Attrs: nounwind uwtable
define dso_local noundef i32 @nghttp2_hd_deflate_change_table_size(ptr noundef initializes((48, 56), (1104, 1105)) %0, i64 noundef %1) local_unnamed_addr #0 {
  %3 = getelementptr inbounds nuw i8, ptr %0, i64 1088
  %4 = load i64, ptr %3, align 8, !tbaa !47
  %. = tail call i64 @llvm.umin.i64(i64 %1, i64 %4)
  %5 = getelementptr inbounds nuw i8, ptr %0, i64 48
  store i64 %., ptr %5, align 8, !tbaa !49
  %6 = getelementptr inbounds nuw i8, ptr %0, i64 1096
  %7 = load i64, ptr %6, align 8, !tbaa !48
  %8 = tail call i64 @llvm.umin.i64(i64 %7, i64 %.)
  store i64 %8, ptr %6, align 8, !tbaa !48
  %9 = getelementptr inbounds nuw i8, ptr %0, i64 1104
  store i8 1, ptr %9, align 8, !tbaa !44
  %10 = getelementptr inbounds nuw i8, ptr %0, i64 64
  tail call fastcc void @hd_context_shrink_table_size(ptr noundef %0, ptr noundef nonnull %10)
  ret i32 0
}